; Function Attrs: nounwind uwtable
define dso_local void @printTableAddFooter(ptr noundef captures(none) %0, ptr noundef %1) local_unnamed_addr #3 {
  %3 = tail call ptr @pg_malloc0(i64 noundef 16) #19
  %4 = tail call ptr @pg_strdup(ptr noundef %1) #19
  store ptr %4, ptr %3, align 8
  %5 = getelementptr inbounds nuw i8, ptr %0, i64 72
  %6 = load ptr, ptr %5, align 8
  %7 = icmp eq ptr %6, null
  br i1 %7, label %8, label %9

8:                                                ; preds = %2
  store ptr %3, ptr %5, align 8
  br label %13

9:                                                ; preds = %2
  %10 = getelementptr inbounds nuw i8, ptr %0, i64 80
  %11 = load ptr, ptr %10, align 8
  %12 = getelementptr inbounds nuw i8, ptr %11, i64 8
  store ptr %3, ptr %12, align 8
  br label %13

13:                                               ; preds = %9, %8
  %14 = getelementptr inbounds nuw i8, ptr %0, i64 80
  store ptr %3, ptr %14, align 8
  ret void
}